target datalayout = "e-m:e-p270:32:32-p271:32:32-p272:64:64-i64:64-i128:128-f80:128-n8:16:32:64-S128"
target triple = "x86_64-pc-linux-gnu"

%struct.Gia_ManMin_t_ = type { ptr, [2 x i32], [2 x ptr], [2 x ptr], ptr, ptr, ptr, ptr }
%struct.Vec_Int_t_ = type { i32, i32, ptr }

; Function Attrs: inlinehint nounwind uwtable
define internal i32 @Abc_Lit2Var(i32 noundef %0) #3 {
  %2 = alloca i32, align 4
  store i32 %0, ptr %2, align 4, !tbaa !20
  %3 = load i32, ptr %2, align 4, !tbaa !20
  %4 = ashr i32 %3, 1
  ret i32 %4
}

; Function Attrs: inlinehint nounwind uwtable
define internal void @Vec_IntClear(ptr noundef %0) #3 {
  %2 = alloca ptr, align 8
  store ptr %0, ptr %2, align 8, !tbaa !15
  %3 = load ptr, ptr %2, align 8, !tbaa !15
  %4 = getelementptr inbounds nuw %struct.Vec_Int_t_, ptr %3, i32 0, i32 1
  store i32 0, ptr %4, align 4, !tbaa !22
  ret void
}

; Function Attrs: nounwind uwtable
define i32 @Gia_ManGatherSupp(ptr noundef %0) #0 {
  %2 = alloca ptr, align 8
  %3 = alloca i32, align 4
  %4 = alloca i32, align 4
  store ptr %0, ptr %2, align 8, !tbaa !8
  call void @llvm.lifetime.start.p0(i64 4, ptr %3) #11
  call void @llvm.lifetime.start.p0(i64 4, ptr %4) #11
  store i32 0, ptr %4, align 4, !tbaa !20
  %5 = load ptr, ptr %2, align 8, !tbaa !8
  %6 = getelementptr inbounds nuw %struct.Gia_ManMin_t_, ptr %5, i32 0, i32 0
  %7 = load ptr, ptr %6, align 8, !tbaa !10
  call void @Gia_ManIncrementTravId(ptr noundef %7)
  store i32 0, ptr %3, align 4, !tbaa !20
  br label %8

8:                                                ; preds = %50, %1
  %9 = load i32, ptr %3, align 4, !tbaa !20
  %10 = icmp slt i32 %9, 2
  br i1 %10, label %11, label %53

11:                                               ; preds = %8
  %12 = load ptr, ptr %2, align 8, !tbaa !8
  %13 = getelementptr inbounds nuw %struct.Gia_ManMin_t_, ptr %12, i32 0, i32 2
  %14 = load i32, ptr %3, align 4, !tbaa !20
  %15 = sext i32 %14 to i64
  %16 = getelementptr inbounds [2 x ptr], ptr %13, i64 0, i64 %15
  %17 = load ptr, ptr %16, align 8, !tbaa !15
  call void @Vec_IntClear(ptr noundef %17)
  %18 = load ptr, ptr %2, align 8, !tbaa !8
  %19 = getelementptr inbounds nuw %struct.Gia_ManMin_t_, ptr %18, i32 0, i32 3
  %20 = load i32, ptr %3, align 4, !tbaa !20
  %21 = sext i32 %20 to i64
  %22 = getelementptr inbounds [2 x ptr], ptr %19, i64 0, i64 %21
  %23 = load ptr, ptr %22, align 8, !tbaa !15
  call void @Vec_IntClear(ptr noundef %23)
  %24 = load ptr, ptr %2, align 8, !tbaa !8
  %25 = getelementptr inbounds nuw %struct.Gia_ManMin_t_, ptr %24, i32 0, i32 0
  %26 = load ptr, ptr %25, align 8, !tbaa !10
  call void @Gia_ManIncrementTravId(ptr noundef %26)
  %27 = load ptr, ptr %2, align 8, !tbaa !8
  %28 = getelementptr inbounds nuw %struct.Gia_ManMin_t_, ptr %27, i32 0, i32 0
  %29 = load ptr, ptr %28, align 8, !tbaa !10
  %30 = load ptr, ptr %2, align 8, !tbaa !8
  %31 = getelementptr inbounds nuw %struct.Gia_ManMin_t_, ptr %30, i32 0, i32 1
  %32 = load i32, ptr %3, align 4, !tbaa !20
  %33 = sext i32 %32 to i64
  %34 = getelementptr inbounds [2 x i32], ptr %31, i64 0, i64 %33
  %35 = load i32, ptr %34, align 4, !tbaa !20
  %36 = call i32 @Abc_Lit2Var(i32 noundef %35)
  %37 = load ptr, ptr %2, align 8, !tbaa !8
  %38 = getelementptr inbounds nuw %struct.Gia_ManMin_t_, ptr %37, i32 0, i32 2
  %39 = load i32, ptr %3, align 4, !tbaa !20
  %40 = sext i32 %39 to i64
  %41 = getelementptr inbounds [2 x ptr], ptr %38, i64 0, i64 %40
  %42 = load ptr, ptr %41, align 8, !tbaa !15
  %43 = load ptr, ptr %2, align 8, !tbaa !8
  %44 = getelementptr inbounds nuw %struct.Gia_ManMin_t_, ptr %43, i32 0, i32 3
  %45 = load i32, ptr %3, align 4, !tbaa !20
  %46 = sext i32 %45 to i64
  %47 = getelementptr inbounds [2 x ptr], ptr %44, i64 0, i64 %46
  %48 = load ptr, ptr %47, align 8, !tbaa !15
  %49 = call i32 @Gia_ManGatherSupp_rec(ptr noundef %29, i32 noundef %36, ptr noundef %42, ptr noundef %48)
  store i32 %49, ptr %4, align 4, !tbaa !20
  br label %50

50:                                               ; preds = %11
  %51 = load i32, ptr %3, align 4, !tbaa !20
  %52 = add nsw i32 %51, 1
  store i32 %52, ptr %3, align 4, !tbaa !20
  br label %8, !llvm.loop !71

53:                                               ; preds = %8
  %54 = load i32, ptr %4, align 4, !tbaa !20
  call void @llvm.lifetime.end.p0(i64 4, ptr %4) #11
  call void @llvm.lifetime.end.p0(i64 4, ptr %3) #11
  ret i32 %54
}