; Function Attrs: nounwind uwtable
define range(i32 0, 2) i32 @Gia_ManGatherSupp(ptr noundef readonly captures(none) %0) local_unnamed_addr #0 {
  %2 = load ptr, ptr %0, align 8, !tbaa !3
  tail call void @Gia_ManIncrementTravId(ptr noundef %2) #17
  %3 = getelementptr inbounds nuw i8, ptr %0, i64 16
  %4 = getelementptr inbounds nuw i8, ptr %0, i64 32
  %5 = getelementptr inbounds nuw i8, ptr %0, i64 8
  br label %6

6:                                                ; preds = %1, %6
  %7 = phi i1 [ true, %1 ], [ false, %6 ]
  %indvars.iv = phi i64 [ 0, %1 ], [ 1, %6 ]
  %8 = getelementptr inbounds nuw [2 x ptr], ptr %3, i64 0, i64 %indvars.iv
  %9 = load ptr, ptr %8, align 8, !tbaa !18
  %10 = getelementptr inbounds nuw i8, ptr %9, i64 4
  store i32 0, ptr %10, align 4, !tbaa !12
  %11 = getelementptr inbounds nuw [2 x ptr], ptr %4, i64 0, i64 %indvars.iv
  %12 = load ptr, ptr %11, align 8, !tbaa !18
  %13 = getelementptr inbounds nuw i8, ptr %12, i64 4
  store i32 0, ptr %13, align 4, !tbaa !12
  %14 = load ptr, ptr %0, align 8, !tbaa !3
  tail call void @Gia_ManIncrementTravId(ptr noundef %14) #17
  %15 = load ptr, ptr %0, align 8, !tbaa !3
  %16 = getelementptr inbounds nuw [2 x i32], ptr %5, i64 0, i64 %indvars.iv
  %17 = load i32, ptr %16, align 4, !tbaa !47
  %18 = ashr i32 %17, 1
  %19 = load ptr, ptr %8, align 8, !tbaa !18
  %20 = load ptr, ptr %11, align 8, !tbaa !18
  %21 = tail call fastcc i32 @Gia_ManGatherSupp_rec(ptr noundef %15, i32 noundef %18, ptr noundef %19, ptr noundef %20)
  br i1 %7, label %6, label %22, !llvm.loop !59

22:                                               ; preds = %6
  ret i32 %21
}